; Function Attrs: nounwind sspstrong uwtable
define internal void @machine_set_smp(ptr noundef %obj, ptr noundef %v, ptr noundef %name, ptr readnone captures(none) %opaque, ptr noundef %errp) #0 {
entry:
  %config = alloca ptr, align 8
  %call.i = tail call ptr @object_dynamic_cast_assert(ptr noundef %obj, ptr noundef nonnull @.str.225, ptr noundef nonnull @.str.226, i32 noundef 23, ptr noundef nonnull @__func__.MACHINE) #16
  store ptr null, ptr %config, align 8
  %call1 = call zeroext i1 @visit_type_SMPConfiguration(ptr noundef %v, ptr noundef %name, ptr noundef nonnull %config, ptr noundef %errp) #16
  br i1 %call1, label %if.end, label %cleanup

if.end:                                           ; preds = %entry
  %0 = load ptr, ptr %config, align 8
  call void @machine_parse_smp_config(ptr noundef %call.i, ptr noundef %0, ptr noundef %errp) #16
  br label %cleanup

cleanup:                                          ; preds = %entry, %if.end
  %config.val = load ptr, ptr %config, align 8
  %tobool.not.i.i = icmp eq ptr %config.val, null
  br i1 %tobool.not.i.i, label %glib_autoptr_cleanup_SMPConfiguration.exit, label %if.then.i.i

if.then.i.i:                                      ; preds = %cleanup
  call void @qapi_free_SMPConfiguration(ptr noundef nonnull %config.val) #16
  br label %glib_autoptr_cleanup_SMPConfiguration.exit

glib_autoptr_cleanup_SMPConfiguration.exit:       ; preds = %cleanup, %if.then.i.i
  ret void
}